ccopy_reg
_reconstructor
p0
(csklearn.linear_model.base
LinearRegression
p1
c__builtin__
object
p2
Ntp3
Rp4
(dp5
S'normalize'
p6
I00
sS'n_jobs'
p7
I1
sS'rank_'
p8
I5
sS'fit_intercept'
p9
I01
sS'_residues'
p10
cnumpy.core.multiarray
_reconstruct
p11
(cnumpy
ndarray
p12
(I0
tp13
S'b'
p14
tp15
Rp16
(I1
(L1L
tp17
cnumpy
dtype
p18
(S'f8'
p19
I0
I1
tp20
Rp21
(I3
S'<'
p22
NNNI-1
I-1
I0
tp23
bI00
S'q=\xc3\x16\xda\xb4xB'
p24
tp25
bsS'coef_'
p26
g11
(g12
(I0
tp27
g14
tp28
Rp29
(I1
(L1L
L5L
tp30
g21
I00
S'G\xdc\xea\xf1\te\xc3\xc0)\xa7^v\xaas\xb0@G\x860\xb6g\xcd\x9f\xc0\xca\x8f\xcf<\x93\x1c\xa7@\xbb\xf4\xd2?Vn\xd6\xc0'
p31
tp32
bsS'_sklearn_version'
p33
S'0.19.0'
p34
sS'copy_X'
p35
I01
sS'intercept_'
p36
g11
(g12
(I0
tp37
g14
tp38
Rp39
(I1
(L1L
tp40
g21
I00
S'2G:\xd5\xf8\x81\x01A'
p41
tp42
bsS'singular_'
p43
g11
(g12
(I0
tp44
g14
tp45
Rp46
(I1
(L5L
tp47
g21
I00
S'\x14\xe7\xf6d]\xf6t@< `Q\xdc:n@^5\xdb\xd2\xab(h@\x9fJ\x17\xfa~\x87V@\xfa\xe8\x16\xcb3\xae5@'
p48
tp49
bsb.